; Function Attrs: mustprogress nounwind uwtable
define internal fastcc void @_ZN12_GLOBAL__N_116FunctionCompiler19compileVectorLoadOpEjjjN8WasmEdge4LLVM4TypeE(ptr noundef nonnull align 8 dereferenceable(200) %0, i32 noundef %1, i32 noundef %2, i64 %.0.val) unnamed_addr #0 align 2 {
  %4 = alloca %"class.WasmEdge::LLVM::Type", align 8
  store i64 %.0.val, ptr %4, align 8
  call fastcc void @_ZN12_GLOBAL__N_116FunctionCompiler13compileLoadOpEjjjN8WasmEdge4LLVM4TypeE(ptr noundef nonnull align 8 dereferenceable(200) %0, i32 noundef %1, i32 noundef %2, ptr noundef %4) #16
  %5 = getelementptr inbounds nuw i8, ptr %0, i64 192
  %6 = getelementptr inbounds nuw i8, ptr %0, i64 48
  %7 = load ptr, ptr %6, align 8
  %8 = getelementptr inbounds i8, ptr %7, i64 -8
  %9 = load i64, ptr %8, align 8
  %10 = inttoptr i64 %9 to ptr
  %11 = load ptr, ptr %0, align 8
  %12 = getelementptr inbounds nuw i8, ptr %11, i64 176
  %13 = load i64, ptr %12, align 8
  %14 = inttoptr i64 %13 to ptr
  %15 = load ptr, ptr %5, align 8, !noalias !4189
  %16 = tail call ptr @LLVMBuildBitCast(ptr noundef %15, ptr noundef %10, ptr noundef %14, ptr noundef nonnull @.str.11) #16, !noalias !4189
  %17 = load ptr, ptr %6, align 8
  %18 = getelementptr inbounds i8, ptr %17, i64 -8
  store ptr %16, ptr %18, align 8
  ret void
}